; Function Attrs: nounwind uwtable
define dso_local noundef ptr @decNumberToIntegralExact(ptr noundef returned %0, ptr noundef captures(address) %1, ptr noundef %2) local_unnamed_addr #4 {
  %4 = alloca i32, align 4
  %5 = alloca %struct.decNumber, align 4
  %6 = alloca %struct.decContext, align 4
  %7 = alloca i32, align 4
  call void @llvm.lifetime.start.p0(i64 12, ptr nonnull %5) #18
  call void @llvm.lifetime.start.p0(i64 28, ptr nonnull %6) #18
  call void @llvm.lifetime.start.p0(i64 4, ptr nonnull %7) #18
  store i32 0, ptr %7, align 4, !tbaa !16
  %8 = getelementptr inbounds nuw i8, ptr %1, i64 8
  %9 = load i8, ptr %8, align 4, !tbaa !4
  %10 = zext i8 %9 to i32
  %11 = and i32 %10, 112
  %.not = icmp eq i32 %11, 0
  br i1 %.not, label %42, label %12

12:                                               ; preds = %3
  %13 = and i32 %10, 64
  %.not19 = icmp eq i32 %13, 0
  br i1 %.not19, label %40, label %14

14:                                               ; preds = %12
  %15 = icmp eq ptr %0, %1
  br i1 %15, label %decNumberCopy.exit32, label %16

16:                                               ; preds = %14
  %17 = getelementptr inbounds nuw i8, ptr %0, i64 8
  store i8 %9, ptr %17, align 4, !tbaa !4
  %18 = getelementptr inbounds nuw i8, ptr %1, i64 4
  %19 = load i32, ptr %18, align 4, !tbaa !9
  %20 = getelementptr inbounds nuw i8, ptr %0, i64 4
  store i32 %19, ptr %20, align 4, !tbaa !9
  %21 = load i32, ptr %1, align 4, !tbaa !10
  store i32 %21, ptr %0, align 4, !tbaa !10
  %.ptr.i = getelementptr inbounds nuw i8, ptr %1, i64 10
  %22 = load i16, ptr %.ptr.i, align 2, !tbaa !11
  %23 = getelementptr inbounds nuw i8, ptr %0, i64 10
  store i16 %22, ptr %23, align 2, !tbaa !11
  %24 = icmp sgt i32 %21, 3
  br i1 %24, label %25, label %decNumberCopy.exit32

25:                                               ; preds = %16
  %26 = getelementptr inbounds nuw i8, ptr %0, i64 12
  %27 = icmp samesign ult i32 %21, 50
  br i1 %27, label %30, label %.thread.i

.thread.i:                                        ; preds = %25
  %28 = add nuw nsw i32 %21, 2
  %29 = udiv i32 %28, 3
  br label %.lr.ph.preheader.i

30:                                               ; preds = %25
  %31 = zext nneg i32 %21 to i64
  %32 = getelementptr inbounds nuw [50 x i8], ptr @d2utable, i64 0, i64 %31
  %33 = load i8, ptr %32, align 1, !tbaa !19
  %34 = zext i8 %33 to i32
  br label %.lr.ph.preheader.i

.lr.ph.preheader.i:                               ; preds = %30, %.thread.i
  %.idx34.pn.in.in.i = phi i32 [ %29, %.thread.i ], [ %34, %30 ]
  %.idx34.pn.in.i = shl nuw nsw i32 %.idx34.pn.in.in.i, 1
  %.idx34.pn.i = zext nneg i32 %.idx34.pn.in.i to i64
  %.pn.i = getelementptr inbounds nuw i8, ptr %1, i64 %.idx34.pn.i
  %.ptr3336.i = getelementptr inbounds nuw i8, ptr %.pn.i, i64 10
  %35 = getelementptr inbounds nuw i8, ptr %1, i64 12
  br label %.lr.ph.i

.lr.ph.i:                                         ; preds = %.lr.ph.i, %.lr.ph.preheader.i
  %.032.i = phi ptr [ %38, %.lr.ph.i ], [ %26, %.lr.ph.preheader.i ]
  %.02631.i = phi ptr [ %37, %.lr.ph.i ], [ %35, %.lr.ph.preheader.i ]
  %36 = load i16, ptr %.02631.i, align 2, !tbaa !11
  store i16 %36, ptr %.032.i, align 2, !tbaa !11
  %37 = getelementptr inbounds nuw i8, ptr %.02631.i, i64 2
  %38 = getelementptr inbounds nuw i8, ptr %.032.i, i64 2
  %39 = icmp ult ptr %37, %.ptr3336.i
  br i1 %39, label %.lr.ph.i, label %decNumberCopy.exit32, !llvm.loop !39

40:                                               ; preds = %12
  %41 = call fastcc ptr @decNaNs(ptr noundef %0, ptr noundef nonnull %1, ptr noundef null, ptr noundef %2, ptr noundef %7)
  %.pr.pre = load i32, ptr %7, align 4, !tbaa !16
  br label %decNumberCopy.exit

42:                                               ; preds = %3
  %43 = getelementptr inbounds nuw i8, ptr %1, i64 4
  %44 = load i32, ptr %43, align 4, !tbaa !9
  %45 = icmp sgt i32 %44, -1
  br i1 %45, label %46, label %70

46:                                               ; preds = %42
  %47 = icmp eq ptr %0, %1
  br i1 %47, label %decNumberCopy.exit32, label %48

48:                                               ; preds = %46
  %49 = getelementptr inbounds nuw i8, ptr %0, i64 8
  store i8 %9, ptr %49, align 4, !tbaa !4
  %50 = getelementptr inbounds nuw i8, ptr %0, i64 4
  store i32 %44, ptr %50, align 4, !tbaa !9
  %51 = load i32, ptr %1, align 4, !tbaa !10
  store i32 %51, ptr %0, align 4, !tbaa !10
  %.ptr.i21 = getelementptr inbounds nuw i8, ptr %1, i64 10
  %52 = load i16, ptr %.ptr.i21, align 2, !tbaa !11
  %53 = getelementptr inbounds nuw i8, ptr %0, i64 10
  store i16 %52, ptr %53, align 2, !tbaa !11
  %54 = icmp sgt i32 %51, 3
  br i1 %54, label %55, label %decNumberCopy.exit32

55:                                               ; preds = %48
  %56 = getelementptr inbounds nuw i8, ptr %0, i64 12
  %57 = icmp samesign ult i32 %51, 50
  br i1 %57, label %60, label %.thread.i22

.thread.i22:                                      ; preds = %55
  %58 = add nuw nsw i32 %51, 2
  %59 = udiv i32 %58, 3
  br label %.lr.ph.preheader.i23

60:                                               ; preds = %55
  %61 = zext nneg i32 %51 to i64
  %62 = getelementptr inbounds nuw [50 x i8], ptr @d2utable, i64 0, i64 %61
  %63 = load i8, ptr %62, align 1, !tbaa !19
  %64 = zext i8 %63 to i32
  br label %.lr.ph.preheader.i23

.lr.ph.preheader.i23:                             ; preds = %60, %.thread.i22
  %.idx34.pn.in.in.i24 = phi i32 [ %59, %.thread.i22 ], [ %64, %60 ]
  %.idx34.pn.in.i25 = shl nuw nsw i32 %.idx34.pn.in.in.i24, 1
  %.idx34.pn.i26 = zext nneg i32 %.idx34.pn.in.i25 to i64
  %.pn.i27 = getelementptr inbounds nuw i8, ptr %1, i64 %.idx34.pn.i26
  %.ptr3336.i28 = getelementptr inbounds nuw i8, ptr %.pn.i27, i64 10
  %65 = getelementptr inbounds nuw i8, ptr %1, i64 12
  br label %.lr.ph.i29

.lr.ph.i29:                                       ; preds = %.lr.ph.i29, %.lr.ph.preheader.i23
  %.032.i30 = phi ptr [ %68, %.lr.ph.i29 ], [ %56, %.lr.ph.preheader.i23 ]
  %.02631.i31 = phi ptr [ %67, %.lr.ph.i29 ], [ %65, %.lr.ph.preheader.i23 ]
  %66 = load i16, ptr %.02631.i31, align 2, !tbaa !11
  store i16 %66, ptr %.032.i30, align 2, !tbaa !11
  %67 = getelementptr inbounds nuw i8, ptr %.02631.i31, i64 2
  %68 = getelementptr inbounds nuw i8, ptr %.032.i30, i64 2
  %69 = icmp ult ptr %67, %.ptr3336.i28
  br i1 %69, label %.lr.ph.i29, label %decNumberCopy.exit32, !llvm.loop !39

70:                                               ; preds = %42
  call void @llvm.memcpy.p0.p0.i64(ptr noundef nonnull align 4 dereferenceable(28) %6, ptr noundef nonnull align 4 dereferenceable(28) %2, i64 28, i1 false), !tbaa.struct !46
  %71 = load i32, ptr %1, align 4, !tbaa !10
  store i32 %71, ptr %6, align 4, !tbaa !25
  %72 = getelementptr inbounds nuw i8, ptr %6, i64 16
  store i32 0, ptr %72, align 4, !tbaa !73
  %73 = getelementptr inbounds nuw i8, ptr %5, i64 8
  store i8 0, ptr %73, align 4, !tbaa !4
  %74 = getelementptr inbounds nuw i8, ptr %5, i64 4
  store i32 0, ptr %74, align 4, !tbaa !9
  store i32 1, ptr %5, align 4, !tbaa !10
  %75 = getelementptr inbounds nuw i8, ptr %5, i64 10
  store i16 0, ptr %75, align 2, !tbaa !11
  call void @llvm.lifetime.start.p0(i64 4, ptr nonnull %4) #18
  store i32 0, ptr %4, align 4, !tbaa !16
  %76 = call fastcc ptr @decQuantizeOp(ptr noundef %0, ptr noundef nonnull %1, ptr noundef nonnull %5, ptr noundef nonnull %6, i8 noundef zeroext 1, ptr noundef %4)
  %77 = load i32, ptr %4, align 4, !tbaa !16
  %.not.i = icmp eq i32 %77, 0
  br i1 %.not.i, label %decNumberQuantize.exit, label %78

78:                                               ; preds = %70
  %79 = and i32 %77, 221
  %.not.i.i = icmp eq i32 %79, 0
  br i1 %.not.i.i, label %decStatus.exit.i, label %80

80:                                               ; preds = %78
  %81 = and i32 %77, 1073741824
  %.not6.i.i = icmp eq i32 %81, 0
  br i1 %.not6.i.i, label %84, label %82

82:                                               ; preds = %80
  %83 = and i32 %77, -1073741825
  br label %decStatus.exit.i

84:                                               ; preds = %80
  %85 = getelementptr inbounds nuw i8, ptr %0, i64 8
  %86 = getelementptr inbounds nuw i8, ptr %0, i64 4
  store i32 0, ptr %86, align 4, !tbaa !9
  store i32 1, ptr %0, align 4, !tbaa !10
  %87 = getelementptr inbounds nuw i8, ptr %0, i64 10
  store i16 0, ptr %87, align 2, !tbaa !11
  store i8 32, ptr %85, align 4, !tbaa !4
  br label %decStatus.exit.i

decStatus.exit.i:                                 ; preds = %84, %82, %78
  %.0.i.i = phi i32 [ %83, %82 ], [ %77, %84 ], [ %77, %78 ]
  %88 = call ptr @decContextSetStatus(ptr noundef nonnull %6, i32 noundef %.0.i.i) #18
  br label %decNumberQuantize.exit

decNumberQuantize.exit:                           ; preds = %70, %decStatus.exit.i
  call void @llvm.lifetime.end.p0(i64 4, ptr nonnull %4) #18
  %89 = getelementptr inbounds nuw i8, ptr %6, i64 20
  %90 = load i32, ptr %89, align 4, !tbaa !74
  br label %decNumberCopy.exit

decNumberCopy.exit:                               ; preds = %40, %decNumberQuantize.exit
  %91 = phi i32 [ %90, %decNumberQuantize.exit ], [ %.pr.pre, %40 ]
  %.not20 = icmp eq i32 %91, 0
  br i1 %.not20, label %decNumberCopy.exit32, label %92

92:                                               ; preds = %decNumberCopy.exit
  %93 = and i32 %91, 221
  %.not.i33 = icmp eq i32 %93, 0
  br i1 %.not.i33, label %decStatus.exit, label %94

94:                                               ; preds = %92
  %95 = and i32 %91, 1073741824
  %.not6.i = icmp eq i32 %95, 0
  br i1 %.not6.i, label %98, label %96

96:                                               ; preds = %94
  %97 = and i32 %91, -1073741825
  br label %decStatus.exit

98:                                               ; preds = %94
  %99 = getelementptr inbounds nuw i8, ptr %0, i64 8
  %100 = getelementptr inbounds nuw i8, ptr %0, i64 4
  store i32 0, ptr %100, align 4, !tbaa !9
  store i32 1, ptr %0, align 4, !tbaa !10
  %101 = getelementptr inbounds nuw i8, ptr %0, i64 10
  store i16 0, ptr %101, align 2, !tbaa !11
  store i8 32, ptr %99, align 4, !tbaa !4
  br label %decStatus.exit

decStatus.exit:                                   ; preds = %92, %96, %98
  %.0.i = phi i32 [ %97, %96 ], [ %91, %98 ], [ %91, %92 ]
  %102 = call ptr @decContextSetStatus(ptr noundef %2, i32 noundef %.0.i) #18
  br label %decNumberCopy.exit32

decNumberCopy.exit32:                             ; preds = %.lr.ph.i, %.lr.ph.i29, %16, %14, %48, %46, %decNumberCopy.exit, %decStatus.exit
  call void @llvm.lifetime.end.p0(i64 4, ptr nonnull %7) #18
  call void @llvm.lifetime.end.p0(i64 28, ptr nonnull %6) #18
  call void @llvm.lifetime.end.p0(i64 12, ptr nonnull %5) #18
  ret ptr %0
}